target datalayout = "e-m:e-p270:32:32-p271:32:32-p272:64:64-i64:64-i128:128-f80:128-n8:16:32:64-S128"
target triple = "x86_64-pc-linux-gnu"

%struct.ARKodeMemRec = type { ptr, double, ptr, i32, i32, double, double, ptr, i32, double, ptr, i32, i32, ptr, ptr, i32, ptr, ptr, i32, ptr, ptr, ptr, ptr, ptr, ptr, ptr, ptr, ptr, ptr, ptr, ptr, ptr, ptr, ptr, i32, ptr, ptr, i32, ptr, i32, ptr, ptr, ptr, ptr, ptr, ptr, ptr, ptr, ptr, ptr, ptr, ptr, ptr, ptr, ptr, ptr, ptr, ptr, ptr, ptr, ptr, ptr, ptr, ptr, ptr, ptr, i32, ptr, ptr, ptr, ptr, ptr, ptr, ptr, i32, ptr, ptr, ptr, i32, ptr, ptr, ptr, ptr, ptr, ptr, ptr, i32, i32, i32, i32, double, double, double, double, double, double, double, double, double, double, i32, ptr, i64, i32, i32, i32, i32, i64, i64, i32, i64, i64, i64, i64, i64, i64, i64, double, double, double, double, double, i32, double, double, i32, i32, i32, i32, i32, i32, i32, i32, ptr, i32, ptr, ptr, ptr, ptr, i32, i32, i32 }
%struct.ARKodeHAdaptMemRec = type { double, double, double, double, i32, double, double, double, double, double, double, i32, i32, i32, i32, ptr, i32, ptr, ptr, i64, i64 }

; Function Attrs: nounwind uwtable
define void @ARKodeFree(ptr noundef %0) #0 {
  %2 = alloca ptr, align 8
  %3 = alloca ptr, align 8
  %4 = alloca i32, align 4
  store ptr %0, ptr %2, align 8, !tbaa !3
  call void @llvm.lifetime.start.p0(i64 8, ptr %3) #10
  %5 = load ptr, ptr %2, align 8, !tbaa !3
  %6 = load ptr, ptr %5, align 8, !tbaa !3
  %7 = icmp eq ptr %6, null
  br i1 %7, label %8, label %9

8:                                                ; preds = %1
  store i32 1, ptr %4, align 4
  br label %89

9:                                                ; preds = %1
  %10 = load ptr, ptr %2, align 8, !tbaa !3
  %11 = load ptr, ptr %10, align 8, !tbaa !3
  store ptr %11, ptr %3, align 8, !tbaa !11
  %12 = load ptr, ptr %3, align 8, !tbaa !11
  %13 = getelementptr inbounds nuw %struct.ARKodeMemRec, ptr %12, i32 0, i32 28
  %14 = load ptr, ptr %13, align 8, !tbaa !152
  %15 = icmp ne ptr %14, null
  br i1 %15, label %16, label %21

16:                                               ; preds = %9
  %17 = load ptr, ptr %3, align 8, !tbaa !11
  %18 = getelementptr inbounds nuw %struct.ARKodeMemRec, ptr %17, i32 0, i32 28
  %19 = load ptr, ptr %18, align 8, !tbaa !152
  %20 = load ptr, ptr %3, align 8, !tbaa !11
  call void %19(ptr noundef %20)
  br label %21

21:                                               ; preds = %16, %9
  %22 = load ptr, ptr %3, align 8, !tbaa !11
  call void @arkFreeVectors(ptr noundef %22)
  %23 = load ptr, ptr %3, align 8, !tbaa !11
  %24 = getelementptr inbounds nuw %struct.ARKodeMemRec, ptr %23, i32 0, i32 101
  %25 = load ptr, ptr %24, align 8, !tbaa !70
  %26 = icmp ne ptr %25, null
  br i1 %26, label %27, label %51

27:                                               ; preds = %21
  %28 = load ptr, ptr %3, align 8, !tbaa !11
  %29 = getelementptr inbounds nuw %struct.ARKodeMemRec, ptr %28, i32 0, i32 101
  %30 = load ptr, ptr %29, align 8, !tbaa !70
  %31 = getelementptr inbounds nuw %struct.ARKodeHAdaptMemRec, ptr %30, i32 0, i32 16
  %32 = load i32, ptr %31, align 8, !tbaa !153
  %33 = icmp ne i32 %32, 0
  br i1 %33, label %34, label %45

34:                                               ; preds = %27
  %35 = load ptr, ptr %3, align 8, !tbaa !11
  %36 = getelementptr inbounds nuw %struct.ARKodeMemRec, ptr %35, i32 0, i32 101
  %37 = load ptr, ptr %36, align 8, !tbaa !70
  %38 = getelementptr inbounds nuw %struct.ARKodeHAdaptMemRec, ptr %37, i32 0, i32 15
  %39 = load ptr, ptr %38, align 8, !tbaa !71
  %40 = call i32 @SUNAdaptController_Destroy(ptr noundef %39)
  %41 = load ptr, ptr %3, align 8, !tbaa !11
  %42 = getelementptr inbounds nuw %struct.ARKodeMemRec, ptr %41, i32 0, i32 101
  %43 = load ptr, ptr %42, align 8, !tbaa !70
  %44 = getelementptr inbounds nuw %struct.ARKodeHAdaptMemRec, ptr %43, i32 0, i32 16
  store i32 0, ptr %44, align 8, !tbaa !153
  br label %45

45:                                               ; preds = %34, %27
  %46 = load ptr, ptr %3, align 8, !tbaa !11
  %47 = getelementptr inbounds nuw %struct.ARKodeMemRec, ptr %46, i32 0, i32 101
  %48 = load ptr, ptr %47, align 8, !tbaa !70
  call void @free(ptr noundef %48) #10
  %49 = load ptr, ptr %3, align 8, !tbaa !11
  %50 = getelementptr inbounds nuw %struct.ARKodeMemRec, ptr %49, i32 0, i32 101
  store ptr null, ptr %50, align 8, !tbaa !70
  br label %51

51:                                               ; preds = %45, %21
  %52 = load ptr, ptr %3, align 8, !tbaa !11
  %53 = getelementptr inbounds nuw %struct.ARKodeMemRec, ptr %52, i32 0, i32 85
  %54 = load ptr, ptr %53, align 8, !tbaa !39
  %55 = icmp ne ptr %54, null
  br i1 %55, label %56, label %63

56:                                               ; preds = %51
  %57 = load ptr, ptr %3, align 8, !tbaa !11
  %58 = load ptr, ptr %3, align 8, !tbaa !11
  %59 = getelementptr inbounds nuw %struct.ARKodeMemRec, ptr %58, i32 0, i32 85
  %60 = load ptr, ptr %59, align 8, !tbaa !39
  call void @arkInterpFree(ptr noundef %57, ptr noundef %60)
  %61 = load ptr, ptr %3, align 8, !tbaa !11
  %62 = getelementptr inbounds nuw %struct.ARKodeMemRec, ptr %61, i32 0, i32 85
  store ptr null, ptr %62, align 8, !tbaa !39
  br label %63

63:                                               ; preds = %56, %51
  %64 = load ptr, ptr %3, align 8, !tbaa !11
  %65 = getelementptr inbounds nuw %struct.ARKodeMemRec, ptr %64, i32 0, i32 133
  %66 = load ptr, ptr %65, align 8, !tbaa !107
  %67 = icmp ne ptr %66, null
  br i1 %67, label %68, label %73

68:                                               ; preds = %63
  %69 = load ptr, ptr %3, align 8, !tbaa !11
  %70 = call i32 @arkRootFree(ptr noundef %69)
  %71 = load ptr, ptr %3, align 8, !tbaa !11
  %72 = getelementptr inbounds nuw %struct.ARKodeMemRec, ptr %71, i32 0, i32 133
  store ptr null, ptr %72, align 8, !tbaa !107
  br label %73

73:                                               ; preds = %68, %63
  %74 = load ptr, ptr %3, align 8, !tbaa !11
  %75 = getelementptr inbounds nuw %struct.ARKodeMemRec, ptr %74, i32 0, i32 135
  %76 = load ptr, ptr %75, align 8, !tbaa !154
  %77 = icmp ne ptr %76, null
  br i1 %77, label %78, label %85

78:                                               ; preds = %73
  %79 = load ptr, ptr %3, align 8, !tbaa !11
  %80 = getelementptr inbounds nuw %struct.ARKodeMemRec, ptr %79, i32 0, i32 135
  %81 = load ptr, ptr %80, align 8, !tbaa !154
  %82 = call i32 @arkRelaxDestroy(ptr noundef %81)
  %83 = load ptr, ptr %3, align 8, !tbaa !11
  %84 = getelementptr inbounds nuw %struct.ARKodeMemRec, ptr %83, i32 0, i32 135
  store ptr null, ptr %84, align 8, !tbaa !154
  br label %85

85:                                               ; preds = %78, %73
  %86 = load ptr, ptr %2, align 8, !tbaa !3
  %87 = load ptr, ptr %86, align 8, !tbaa !3
  call void @free(ptr noundef %87) #10
  %88 = load ptr, ptr %2, align 8, !tbaa !3
  store ptr null, ptr %88, align 8, !tbaa !3
  store i32 0, ptr %4, align 4
  br label %89

89:                                               ; preds = %85, %8
  call void @llvm.lifetime.end.p0(i64 8, ptr %3) #10
  %90 = load i32, ptr %4, align 4
  switch i32 %90, label %92 [
    i32 0, label %91
    i32 1, label %91
  ]

91:                                               ; preds = %89, %89
  ret void

92:                                               ; preds = %89
  unreachable
}