; Function Attrs: nounwind uwtable
define void @ARKodeFree(ptr noundef captures(none) %0) local_unnamed_addr #0 {
  %2 = load ptr, ptr %0, align 8, !tbaa !157
  %3 = icmp eq ptr %2, null
  br i1 %3, label %38, label %4

4:                                                ; preds = %1
  %5 = getelementptr inbounds nuw i8, ptr %2, i64 208
  %6 = load ptr, ptr %5, align 8, !tbaa !158
  %.not = icmp eq ptr %6, null
  br i1 %.not, label %8, label %7

7:                                                ; preds = %4
  tail call void %6(ptr noundef nonnull %2) #16
  br label %8

8:                                                ; preds = %7, %4
  tail call void @arkFreeVectors(ptr noundef nonnull %2)
  %9 = getelementptr inbounds nuw i8, ptr %2, i64 776
  %10 = load ptr, ptr %9, align 8, !tbaa !78
  %.not28 = icmp eq ptr %10, null
  br i1 %.not28, label %22, label %11

11:                                               ; preds = %8
  %12 = getelementptr inbounds nuw i8, ptr %10, i64 112
  %13 = load i32, ptr %12, align 8, !tbaa !159
  %.not29 = icmp eq i32 %13, 0
  br i1 %.not29, label %20, label %14

14:                                               ; preds = %11
  %15 = getelementptr inbounds nuw i8, ptr %10, i64 104
  %16 = load ptr, ptr %15, align 8, !tbaa !79
  %17 = tail call i32 @SUNAdaptController_Destroy(ptr noundef %16) #16
  %18 = load ptr, ptr %9, align 8, !tbaa !78
  %19 = getelementptr inbounds nuw i8, ptr %18, i64 112
  store i32 0, ptr %19, align 8, !tbaa !159
  br label %20

20:                                               ; preds = %14, %11
  %21 = phi ptr [ %18, %14 ], [ %10, %11 ]
  tail call void @free(ptr noundef nonnull %21) #16
  store ptr null, ptr %9, align 8, !tbaa !78
  br label %22

22:                                               ; preds = %20, %8
  %23 = getelementptr inbounds nuw i8, ptr %2, i64 664
  %24 = load ptr, ptr %23, align 8, !tbaa !33
  %.not30 = icmp eq ptr %24, null
  br i1 %.not30, label %26, label %25

25:                                               ; preds = %22
  tail call void @arkInterpFree(ptr noundef nonnull %2, ptr noundef nonnull %24) #16
  store ptr null, ptr %23, align 8, !tbaa !33
  br label %26

26:                                               ; preds = %25, %22
  %27 = getelementptr inbounds nuw i8, ptr %2, i64 984
  %28 = load ptr, ptr %27, align 8, !tbaa !107
  %.not31 = icmp eq ptr %28, null
  br i1 %.not31, label %31, label %29

29:                                               ; preds = %26
  %30 = tail call i32 @arkRootFree(ptr noundef nonnull %2) #16
  store ptr null, ptr %27, align 8, !tbaa !107
  br label %31

31:                                               ; preds = %29, %26
  %32 = getelementptr inbounds nuw i8, ptr %2, i64 1000
  %33 = load ptr, ptr %32, align 8, !tbaa !160
  %.not32 = icmp eq ptr %33, null
  br i1 %.not32, label %36, label %34

34:                                               ; preds = %31
  %35 = tail call i32 @arkRelaxDestroy(ptr noundef nonnull %33) #16
  store ptr null, ptr %32, align 8, !tbaa !160
  br label %36

36:                                               ; preds = %34, %31
  %37 = load ptr, ptr %0, align 8, !tbaa !157
  tail call void @free(ptr noundef %37) #16
  store ptr null, ptr %0, align 8, !tbaa !157
  br label %38

38:                                               ; preds = %1, %36
  ret void
}